(dp0
S'Canada'
p1
S'CA'
p2
sS"C\x99te d'Ivoire"
p3
S'CI'
p4
sS'Turkmenistan'
p5
S'TM'
p6
sS'Lao PDR'
p7
S'LA'
p8
sS'Lithuania'
p9
S'LT'
p10
sS'Cambodia'
p11
S'KH'
p12
sS'Switzerland'
p13
S'CH'
p14
sS'Ethiopia'
p15
S'ET'
p16
sS'Yemen, Rep.'
p17
S'RY'
p18
sS'Swaziland'
p19
S'SZ'
p20
sS'Argentina'
p21
S'AR'
p22
sS'Bolivia'
p23
S'BO'
p24
sS'Bahamas, The'
p25
S'BS'
p26
sS'Burkina Faso'
p27
S'BF'
p28
sS'Ghana'
p29
S'GH'
p30
sS'Saudi Arabia'
p31
S'SA'
p32
sS'Japan'
p33
S'JP'
p34
sS'Channel Islands'
p35
S'JG'
p36
sS'American Samoa'
p37
S'AS'
p38
sS'Northern Mariana Islands'
p39
S'MP'
p40
sS'Slovenia'
p41
S'SI'
p42
sS'Guatemala'
p43
S'GT'
p44
sS'Bosnia and Herzegovina'
p45
S'BA'
p46
sS'Kuwait'
p47
S'KW'
p48
sS'Russian Federation'
p49
S'RU'
p50
sS'Jordan'
p51
S'JO'
p52
sS'St. Lucia'
p53
S'LC'
p54
sS'Congo, Rep.'
p55
S'CG'
p56
sS'Dominica'
p57
S'DM'
p58
sS'Cura\x8dao'
p59
S'CW'
p60
sS'Liberia'
p61
S'LR'
p62
sS'Maldives'
p63
S'MV'
p64
sS'Pakistan'
p65
S'PK'
p66
sS'Oman'
p67
S'OM'
p68
sS'Tanzania'
p69
S'TZ'
p70
sS'Cabo Verde'
p71
S'CV'
p72
sS'Albania'
p73
S'AL'
p74
sS'Gabon'
p75
S'GA'
p76
sS'Monaco'
p77
S'MC'
p78
sS'New Zealand'
p79
S'NZ'
p80
sS'Jamaica'
p81
S'JM'
p82
sS'Greenland'
p83
S'GL'
p84
sS'Samoa'
p85
S'WS'
p86
sS'Slovak Republic'
p87
S'SK'
p88
sS'United Arab Emirates'
p89
S'AE'
p90
sS'Guam'
p91
S'GU'
p92
sS'Uruguay'
p93
S'UY'
p94
sS'India'
p95
S'IN'
p96
sS'Azerbaijan'
p97
S'AZ'
p98
sS'Lesotho'
p99
S'LS'
p100
sS'Aruba'
p101
S'AW'
p102
sS'Tajikistan'
p103
S'TJ'
p104
sS'Turkey'
p105
S'TR'
p106
sS'Virgin Islands (U.S.)'
p107
S'VI'
p108
sS'Venezuela, RB'
p109
S'VE'
p110
sS'Bangladesh'
p111
S'BD'
p112
sS'Mauritania'
p113
S'MR'
p114
sS'Solomon Islands'
p115
S'SB'
p116
sS'Hong Kong SAR, China'
p117
S'HK'
p118
sS'San Marino'
p119
S'SM'
p120
sS'French Polynesia'
p121
S'PF'
p122
sS'France'
p123
S'FR'
p124
sS'Syrian Arab Republic'
p125
S'SY'
p126
sS'Bermuda'
p127
S'BM'
p128
sS'Namibia'
p129
S'NA'
p130
sS'Somalia'
p131
S'SO'
p132
sS'Peru'
p133
S'PE'
p134
sS'Vanuatu'
p135
S'VU'
p136
sS'Nigeria'
p137
S'NG'
p138
sS'Seychelles'
p139
S'SC'
p140
sS'Norway'
p141
S'NO'
p142
sS'Malawi'
p143
S'MW'
p144
sS'West Bank and Gaza'
p145
S'GZ'
p146
sS'Benin'
p147
S'BJ'
p148
sS'Cuba'
p149
S'CU'
p150
sS'Cameroon'
p151
S'CM'
p152
sS'Montenegro'
p153
S'ME'
p154
sS'Togo'
p155
S'TG'
p156
sS'China'
p157
S'CN'
p158
sS'Armenia'
p159
S'AM'
p160
sS'Timor-Leste'
p161
S'TP'
p162
sS'Dominican Republic'
p163
S'DO'
p164
sS'Ukraine'
p165
S'UA'
p166
sS'Bahrain'
p167
S'BH'
p168
sS'Tonga'
p169
S'TO'
p170
sS'Finland'
p171
S'FI'
p172
sS'Libya'
p173
S'LY'
p174
sS'Cayman Islands'
p175
S'KY'
p176
sS'Central African Republic'
p177
S'CF'
p178
sS'S\x8bo Tom\x8e and Principe'
p179
S'ST'
p180
sS'Mauritius'
p181
S'MU'
p182
sS'Liechtenstein'
p183
S'LI'
p184
sS'Belarus'
p185
S'BY'
p186
sS'Kenya'
p187
S'KE'
p188
sS'Micronesia, Fed. Sts.'
p189
S'FM'
p190
sS'Korea, Dem. Rep.'
p191
S'KP'
p192
sS'Bulgaria'
p193
S'BG'
p194
sS'United States'
p195
S'US'
p196
sS'Romania'
p197
S'RO'
p198
sS'Angola'
p199
S'AO'
p200
sS'Chad'
p201
S'TD'
p202
sS'South Africa'
p203
S'ZA'
p204
sS'St. Vincent and the Grenadines'
p205
S'VC'
p206
sS'Cyprus'
p207
S'CY'
p208
sS'Brunei Darussalam'
p209
S'BN'
p210
sS'Qatar'
p211
S'QA'
p212
sS'Malaysia'
p213
S'MY'
p214
sS'Austria'
p215
S'AT'
p216
sS'Vietnam'
p217
S'VN'
p218
sS'Mozambique'
p219
S'MZ'
p220
sS'Uganda'
p221
S'UG'
p222
sS'Kyrgyz Republic'
p223
S'KG'
p224
sS'Hungary'
p225
S'HU'
p226
sS'Niger'
p227
S'NE'
p228
sS'Isle of Man'
p229
S'IM'
p230
sS'Brazil'
p231
S'BR'
p232
sS'Afghanistan'
p233
S'AF'
p234
sS'Guinea'
p235
S'GN'
p236
sS'Panama'
p237
S'PA'
p238
sS'Mali'
p239
S'ML'
p240
sS'Costa Rica'
p241
S'CR'
p242
sS'Luxembourg'
p243
S'LU'
p244
sS'Andorra'
p245
S'AD'
p246
sS'Ireland'
p247
S'IE'
p248
sS'Palau'
p249
S'PW'
p250
sS'Faeroe Islands'
p251
S'FO'
p252
sS'Ecuador'
p253
S'EC'
p254
sS'Czech Republic'
p255
S'CZ'
p256
sS'Australia'
p257
S'AU'
p258
sS'Algeria'
p259
S'DZ'
p260
sS'El Salvador'
p261
S'SV'
p262
sS'Tuvalu'
p263
S'TV'
p264
sS'St. Kitts and Nevis'
p265
S'KN'
p266
sS'Marshall Islands'
p267
S'MH'
p268
sS'Chile'
p269
S'CL'
p270
sS'Puerto Rico'
p271
S'PR'
p272
sS'Belgium'
p273
S'BE'
p274
sS'Kiribati'
p275
S'KI'
p276
sS'Haiti'
p277
S'HT'
p278
sS'Belize'
p279
S'BZ'
p280
sS'Sierra Leone'
p281
S'SL'
p282
sS'Georgia'
p283
S'GE'
p284
sS'Denmark'
p285
S'DK'
p286
sS'Philippines'
p287
S'PH'
p288
sS'Moldova'
p289
S'MD'
p290
sS'Portugal'
p291
S'PT'
p292
sS'Morocco'
p293
S'MA'
p294
sS'Croatia'
p295
S'HR'
p296
sS'Mongolia'
p297
S'MN'
p298
sS'Guinea-Bissau'
p299
S'GW'
p300
sS'Thailand'
p301
S'TH'
p302
sS'Macedonia, FYR'
p303
S'MK'
p304
sS'Grenada'
p305
S'GD'
p306
sS'Iraq'
p307
S'IQ'
p308
sS'Egypt, Arab Rep.'
p309
S'EG'
p310
sS'Estonia'
p311
S'EE'
p312
sS'Kosovo'
p313
S'XK'
p314
sS'Sweden'
p315
S'SE'
p316
sS'Mexico'
p317
S'MX'
p318
sS'Korea, Rep.'
p319
S'KR'
p320
sS'Uzbekistan'
p321
S'UZ'
p322
sS'Djibouti'
p323
S'DJ'
p324
sS'Rwanda'
p325
S'RW'
p326
sS'Antigua and Barbuda'
p327
S'AG'
p328
sS'Spain'
p329
S'ES'
p330
sS'Colombia'
p331
S'CO'
p332
sS'Burundi'
p333
S'BI'
p334
sS'Fiji'
p335
S'FJ'
p336
sS'Barbados'
p337
S'BB'
p338
sS'Madagascar'
p339
S'MG'
p340
sS'Italy'
p341
S'IT'
p342
sS'Bhutan'
p343
S'BT'
p344
sS'Sudan'
p345
S'SD'
p346
sS'Nepal'
p347
S'NP'
p348
sS'Singapore'
p349
S'SG'
p350
sS'Malta'
p351
S'MT'
p352
sS'Netherlands'
p353
S'NL'
p354
sS'Macao SAR, China'
p355
S'MO'
p356
sS'Suriname'
p357
S'SR'
p358
sS'Turks and Caicos Islands'
p359
S'TC'
p360
sS'St. Martin (French part)'
p361
S'MF'
p362
sS'Iran, Islamic Rep.'
p363
S'IR'
p364
sS'Israel'
p365
S'IL'
p366
sS'Indonesia'
p367
S'ID'
p368
sS'Iceland'
p369
S'IS'
p370
sS'Zambia'
p371
S'ZM'
p372
sS'Senegal'
p373
S'SN'
p374
sS'Papua New Guinea'
p375
S'PG'
p376
sS'Trinidad and Tobago'
p377
S'TT'
p378
sS'Zimbabwe'
p379
S'ZW'
p380
sS'Germany'
p381
S'DE'
p382
sS'Kazakhstan'
p383
S'KZ'
p384
sS'Poland'
p385
S'PL'
p386
sS'Eritrea'
p387
S'ER'
p388
sS'New Caledonia'
p389
S'NC'
p390
sS'Sri Lanka'
p391
S'LK'
p392
sS'Latvia'
p393
S'LV'
p394
sS'South Sudan'
p395
S'SS'
p396
sS'Guyana'
p397
S'GY'
p398
sS'Honduras'
p399
S'HN'
p400
sS'Myanmar'
p401
S'MM'
p402
sS'Equatorial Guinea'
p403
S'GQ'
p404
sS'Tunisia'
p405
S'TN'
p406
sS'Nicaragua'
p407
S'NI'
p408
sS'Congo, Dem. Rep.'
p409
S'ZR'
p410
sS'Serbia'
p411
S'YF'
p412
sS'Botswana'
p413
S'BW'
p414
sS'United Kingdom'
p415
S'GB'
p416
sS'Gambia, The'
p417
S'GM'
p418
sS'Sint Maarten (Dutch part)'
p419
S'SX'
p420
sS'Greece'
p421
S'GR'
p422
sS'Paraguay'
p423
S'PY'
p424
sS'Lebanon'
p425
S'LB'
p426
sS'Comoros'
p427
S'KM'
p428
s.