(dp0
S'BD'
p1
S'Bangladesh'
p2
sS'BE'
p3
S'Belgium'
p4
sS'BF'
p5
S'Burkina Faso'
p6
sS'BG'
p7
S'Bulgaria'
p8
sS'BA'
p9
S'Bosnia and Herzegovina'
p10
sS'BB'
p11
S'Barbados'
p12
sS'BM'
p13
S'Bermuda'
p14
sS'BN'
p15
S'Brunei Darussalam'
p16
sS'BO'
p17
S'Bolivia'
p18
sS'BH'
p19
S'Bahrain'
p20
sS'BI'
p21
S'Burundi'
p22
sS'BJ'
p23
S'Benin'
p24
sS'BT'
p25
S'Bhutan'
p26
sS'JM'
p27
S'Jamaica'
p28
sS'BW'
p29
S'Botswana'
p30
sS'WS'
p31
S'Samoa'
p32
sS'BR'
p33
S'Brazil'
p34
sS'BS'
p35
S'Bahamas, The'
p36
sS'JG'
p37
S'Channel Islands'
p38
sS'BY'
p39
S'Belarus'
p40
sS'BZ'
p41
S'Belize'
p42
sS'RU'
p43
S'Russian Federation'
p44
sS'RW'
p45
S'Rwanda'
p46
sS'RY'
p47
S'Yemen, Rep.'
p48
sS'TM'
p49
S'Turkmenistan'
p50
sS'TJ'
p51
S'Tajikistan'
p52
sS'RO'
p53
S'Romania'
p54
sS'GW'
p55
S'Guinea-Bissau'
p56
sS'GU'
p57
S'Guam'
p58
sS'GT'
p59
S'Guatemala'
p60
sS'GR'
p61
S'Greece'
p62
sS'GQ'
p63
S'Equatorial Guinea'
p64
sS'JP'
p65
S'Japan'
p66
sS'GZ'
p67
S'West Bank and Gaza'
p68
sS'GY'
p69
S'Guyana'
p70
sS'GE'
p71
S'Georgia'
p72
sS'GD'
p73
S'Grenada'
p74
sS'GB'
p75
S'United Kingdom'
p76
sS'GA'
p77
S'Gabon'
p78
sS'GN'
p79
S'Guinea'
p80
sS'GM'
p81
S'Gambia, The'
p82
sS'GL'
p83
S'Greenland'
p84
sS'GH'
p85
S'Ghana'
p86
sS'OM'
p87
S'Oman'
p88
sS'TN'
p89
S'Tunisia'
p90
sS'JO'
p91
S'Jordan'
p92
sS'HR'
p93
S'Croatia'
p94
sS'HT'
p95
S'Haiti'
p96
sS'HU'
p97
S'Hungary'
p98
sS'HK'
p99
S'Hong Kong SAR, China'
p100
sS'HN'
p101
S'Honduras'
p102
sS'VE'
p103
S'Venezuela, RB'
p104
sS'PR'
p105
S'Puerto Rico'
p106
sS'PW'
p107
S'Palau'
p108
sS'PT'
p109
S'Portugal'
p110
sS'KN'
p111
S'St. Kitts and Nevis'
p112
sS'PY'
p113
S'Paraguay'
p114
sS'PA'
p115
S'Panama'
p116
sS'PF'
p117
S'French Polynesia'
p118
sS'PG'
p119
S'Papua New Guinea'
p120
sS'PE'
p121
S'Peru'
p122
sS'PK'
p123
S'Pakistan'
p124
sS'PH'
p125
S'Philippines'
p126
sS'PL'
p127
S'Poland'
p128
sS'ZM'
p129
S'Zambia'
p130
sS'EE'
p131
S'Estonia'
p132
sS'EG'
p133
S'Egypt, Arab Rep.'
p134
sS'ZA'
p135
S'South Africa'
p136
sS'EC'
p137
S'Ecuador'
p138
sS'IT'
p139
S'Italy'
p140
sS'VN'
p141
S'Vietnam'
p142
sS'SB'
p143
S'Solomon Islands'
p144
sS'ET'
p145
S'Ethiopia'
p146
sS'SO'
p147
S'Somalia'
p148
sS'ZW'
p149
S'Zimbabwe'
p150
sS'SA'
p151
S'Saudi Arabia'
p152
sS'ZR'
p153
S'Congo, Dem. Rep.'
p154
sS'ER'
p155
S'Eritrea'
p156
sS'ME'
p157
S'Montenegro'
p158
sS'MD'
p159
S'Moldova'
p160
sS'MG'
p161
S'Madagascar'
p162
sS'MF'
p163
S'St. Martin (French part)'
p164
sS'MA'
p165
S'Morocco'
p166
sS'MC'
p167
S'Monaco'
p168
sS'UZ'
p169
S'Uzbekistan'
p170
sS'MM'
p171
S'Myanmar'
p172
sS'ML'
p173
S'Mali'
p174
sS'MO'
p175
S'Macao SAR, China'
p176
sS'MN'
p177
S'Mongolia'
p178
sS'MH'
p179
S'Marshall Islands'
p180
sS'MK'
p181
S'Macedonia, FYR'
p182
sS'MU'
p183
S'Mauritius'
p184
sS'MT'
p185
S'Malta'
p186
sS'MW'
p187
S'Malawi'
p188
sS'MV'
p189
S'Maldives'
p190
sS'MP'
p191
S'Northern Mariana Islands'
p192
sS'MR'
p193
S'Mauritania'
p194
sS'IM'
p195
S'Isle of Man'
p196
sS'UG'
p197
S'Uganda'
p198
sS'MY'
p199
S'Malaysia'
p200
sS'MX'
p201
S'Mexico'
p202
sS'IL'
p203
S'Israel'
p204
sS'FR'
p205
S'France'
p206
sS'FI'
p207
S'Finland'
p208
sS'FJ'
p209
S'Fiji'
p210
sS'FM'
p211
S'Micronesia, Fed. Sts.'
p212
sS'FO'
p213
S'Faeroe Islands'
p214
sS'NI'
p215
S'Nicaragua'
p216
sS'NL'
p217
S'Netherlands'
p218
sS'NO'
p219
S'Norway'
p220
sS'NA'
p221
S'Namibia'
p222
sS'VU'
p223
S'Vanuatu'
p224
sS'NC'
p225
S'New Caledonia'
p226
sS'NE'
p227
S'Niger'
p228
sS'NG'
p229
S'Nigeria'
p230
sS'NZ'
p231
S'New Zealand'
p232
sS'ES'
p233
S'Spain'
p234
sS'NP'
p235
S'Nepal'
p236
sS'XK'
p237
S'Kosovo'
p238
sS'CI'
p239
S"C\x99te d'Ivoire"
p240
sS'CH'
p241
S'Switzerland'
p242
sS'CO'
p243
S'Colombia'
p244
sS'CN'
p245
S'China'
p246
sS'CM'
p247
S'Cameroon'
p248
sS'CL'
p249
S'Chile'
p250
sS'CA'
p251
S'Canada'
p252
sS'CG'
p253
S'Congo, Rep.'
p254
sS'CF'
p255
S'Central African Republic'
p256
sS'CZ'
p257
S'Czech Republic'
p258
sS'CY'
p259
S'Cyprus'
p260
sS'CR'
p261
S'Costa Rica'
p262
sS'CW'
p263
S'Cura\x8dao'
p264
sS'CV'
p265
S'Cabo Verde'
p266
sS'CU'
p267
S'Cuba'
p268
sS'SZ'
p269
S'Swaziland'
p270
sS'SY'
p271
S'Syrian Arab Republic'
p272
sS'SX'
p273
S'Sint Maarten (Dutch part)'
p274
sS'KG'
p275
S'Kyrgyz Republic'
p276
sS'KE'
p277
S'Kenya'
p278
sS'SS'
p279
S'South Sudan'
p280
sS'SR'
p281
S'Suriname'
p282
sS'KI'
p283
S'Kiribati'
p284
sS'KH'
p285
S'Cambodia'
p286
sS'SV'
p287
S'El Salvador'
p288
sS'KM'
p289
S'Comoros'
p290
sS'ST'
p291
S'S\x8bo Tom\x8e and Principe'
p292
sS'SK'
p293
S'Slovak Republic'
p294
sS'KR'
p295
S'Korea, Rep.'
p296
sS'SI'
p297
S'Slovenia'
p298
sS'KP'
p299
S'Korea, Dem. Rep.'
p300
sS'KW'
p301
S'Kuwait'
p302
sS'SN'
p303
S'Senegal'
p304
sS'SM'
p305
S'San Marino'
p306
sS'SL'
p307
S'Sierra Leone'
p308
sS'SC'
p309
S'Seychelles'
p310
sS'KZ'
p311
S'Kazakhstan'
p312
sS'KY'
p313
S'Cayman Islands'
p314
sS'SG'
p315
S'Singapore'
p316
sS'SE'
p317
S'Sweden'
p318
sS'SD'
p319
S'Sudan'
p320
sS'DO'
p321
S'Dominican Republic'
p322
sS'DM'
p323
S'Dominica'
p324
sS'DJ'
p325
S'Djibouti'
p326
sS'DK'
p327
S'Denmark'
p328
sS'DE'
p329
S'Germany'
p330
sS'YF'
p331
S'Serbia'
p332
sS'DZ'
p333
S'Algeria'
p334
sS'US'
p335
S'United States'
p336
sS'UY'
p337
S'Uruguay'
p338
sS'LB'
p339
S'Lebanon'
p340
sS'LC'
p341
S'St. Lucia'
p342
sS'LA'
p343
S'Lao PDR'
p344
sS'TV'
p345
S'Tuvalu'
p346
sS'TT'
p347
S'Trinidad and Tobago'
p348
sS'TR'
p349
S'Turkey'
p350
sS'LK'
p351
S'Sri Lanka'
p352
sS'TP'
p353
S'Timor-Leste'
p354
sS'LI'
p355
S'Liechtenstein'
p356
sS'LV'
p357
S'Latvia'
p358
sS'TO'
p359
S'Tonga'
p360
sS'LT'
p361
S'Lithuania'
p362
sS'LU'
p363
S'Luxembourg'
p364
sS'LR'
p365
S'Liberia'
p366
sS'LS'
p367
S'Lesotho'
p368
sS'TH'
p369
S'Thailand'
p370
sS'TG'
p371
S'Togo'
p372
sS'TD'
p373
S'Chad'
p374
sS'TC'
p375
S'Turks and Caicos Islands'
p376
sS'LY'
p377
S'Libya'
p378
sS'VC'
p379
S'St. Vincent and the Grenadines'
p380
sS'AE'
p381
S'United Arab Emirates'
p382
sS'AD'
p383
S'Andorra'
p384
sS'AG'
p385
S'Antigua and Barbuda'
p386
sS'AF'
p387
S'Afghanistan'
p388
sS'IQ'
p389
S'Iraq'
p390
sS'VI'
p391
S'Virgin Islands (U.S.)'
p392
sS'IS'
p393
S'Iceland'
p394
sS'IR'
p395
S'Iran, Islamic Rep.'
p396
sS'AM'
p397
S'Armenia'
p398
sS'AL'
p399
S'Albania'
p400
sS'AO'
p401
S'Angola'
p402
sS'AS'
p403
S'American Samoa'
p404
sS'AR'
p405
S'Argentina'
p406
sS'AU'
p407
S'Australia'
p408
sS'AT'
p409
S'Austria'
p410
sS'AW'
p411
S'Aruba'
p412
sS'IN'
p413
S'India'
p414
sS'TZ'
p415
S'Tanzania'
p416
sS'AZ'
p417
S'Azerbaijan'
p418
sS'IE'
p419
S'Ireland'
p420
sS'ID'
p421
S'Indonesia'
p422
sS'UA'
p423
S'Ukraine'
p424
sS'QA'
p425
S'Qatar'
p426
sS'MZ'
p427
S'Mozambique'
p428
s.